; Function Attrs: nounwind uwtable
define void @Dch_DeriveTotalAig_rec(ptr noundef %0, ptr noundef captures(none) %1) local_unnamed_addr #0 {
  %3 = getelementptr inbounds nuw i8, ptr %1, i64 40
  %4 = load ptr, ptr %3, align 8, !tbaa !3
  %.not = icmp eq ptr %4, null
  br i1 %.not, label %5, label %37

5:                                                ; preds = %2
  %6 = getelementptr i8, ptr %1, i64 8
  %.val = load ptr, ptr %6, align 8, !tbaa !6
  %7 = ptrtoint ptr %.val to i64
  %8 = and i64 %7, -2
  %9 = inttoptr i64 %8 to ptr
  tail call void @Dch_DeriveTotalAig_rec(ptr noundef %0, ptr noundef %9)
  %10 = getelementptr i8, ptr %1, i64 16
  %.val9 = load ptr, ptr %10, align 8, !tbaa !11
  %11 = ptrtoint ptr %.val9 to i64
  %12 = and i64 %11, -2
  %13 = inttoptr i64 %12 to ptr
  tail call void @Dch_DeriveTotalAig_rec(ptr noundef %0, ptr noundef %13)
  %.val10 = load ptr, ptr %6, align 8, !tbaa !6
  %14 = ptrtoint ptr %.val10 to i64
  %15 = and i64 %14, -2
  %.not.i = icmp eq i64 %15, 0
  br i1 %.not.i, label %Aig_ObjChild0Copy.exit, label %16

16:                                               ; preds = %5
  %17 = inttoptr i64 %15 to ptr
  %18 = getelementptr inbounds nuw i8, ptr %17, i64 40
  %19 = load ptr, ptr %18, align 8, !tbaa !3
  %20 = and i64 %14, 1
  %21 = ptrtoint ptr %19 to i64
  %22 = xor i64 %20, %21
  %23 = inttoptr i64 %22 to ptr
  br label %Aig_ObjChild0Copy.exit

Aig_ObjChild0Copy.exit:                           ; preds = %5, %16
  %24 = phi ptr [ %23, %16 ], [ null, %5 ]
  %.val11 = load ptr, ptr %10, align 8, !tbaa !11
  %25 = ptrtoint ptr %.val11 to i64
  %26 = and i64 %25, -2
  %.not.i12 = icmp eq i64 %26, 0
  br i1 %.not.i12, label %Aig_ObjChild1Copy.exit, label %27

27:                                               ; preds = %Aig_ObjChild0Copy.exit
  %28 = inttoptr i64 %26 to ptr
  %29 = getelementptr inbounds nuw i8, ptr %28, i64 40
  %30 = load ptr, ptr %29, align 8, !tbaa !3
  %31 = and i64 %25, 1
  %32 = ptrtoint ptr %30 to i64
  %33 = xor i64 %31, %32
  %34 = inttoptr i64 %33 to ptr
  br label %Aig_ObjChild1Copy.exit

Aig_ObjChild1Copy.exit:                           ; preds = %Aig_ObjChild0Copy.exit, %27
  %35 = phi ptr [ %34, %27 ], [ null, %Aig_ObjChild0Copy.exit ]
  %36 = tail call ptr @Aig_And(ptr noundef %0, ptr noundef %24, ptr noundef %35) #2
  store ptr %36, ptr %3, align 8, !tbaa !3
  br label %37

37:                                               ; preds = %2, %Aig_ObjChild1Copy.exit
  ret void
}